; Function Attrs: mustprogress uwtable
define void @_ZN2cv6divideEdRKNS_11_InputArrayERKNS_12_OutputArrayEi(double noundef %0, ptr noundef nonnull align 8 dereferenceable(24) %1, ptr noundef nonnull align 8 dereferenceable(24) %2, i32 noundef %3) local_unnamed_addr #0 personality ptr @__gxx_personality_v0 {
  %5 = alloca double, align 8
  %6 = alloca %"class.cv::utils::trace::details::Region", align 8
  store double %0, ptr %5, align 8
  call void @_ZN2cv5utils5trace7details6RegionC1ERKNS3_21LocationStaticStorageE(ptr noundef nonnull align 8 dereferenceable(12) %6, ptr noundef nonnull align 8 dereferenceable(32) @_ZZN2cv6divideEdRKNS_11_InputArrayERKNS_12_OutputArrayEiE26__cv_trace_location_fn1140)
  %7 = invoke noundef nonnull align 8 dereferenceable(24) ptr @_ZN2cv7noArrayEv()
          to label %8 unwind label %16

8:                                                ; preds = %4
  invoke fastcc void @_ZN2cvL9arithm_opERKNS_11_InputArrayES2_RKNS_12_OutputArrayES2_iPPFvPKhmS7_mPhmiiPvEbS9_iPFiS7_mS7_mS8_miiS9_E(ptr noundef nonnull align 8 dereferenceable(24) %1, ptr noundef nonnull align 8 dereferenceable(24) %1, ptr noundef nonnull align 8 dereferenceable(24) %2, ptr noundef nonnull align 8 dereferenceable(24) %7, i32 noundef %3, ptr noundef nonnull @_ZZN2cvL11getRecipTabEvE8recipTab, i1 noundef zeroext true, ptr noundef nonnull %5, ptr noundef null)
          to label %9 unwind label %16

9:                                                ; preds = %8
  %10 = getelementptr inbounds i8, ptr %6, i64 8
  %11 = load i32, ptr %10, align 8
  %.not.i = icmp eq i32 %11, 0
  br i1 %.not.i, label %_ZN2cv5utils5trace7details6RegionD2Ev.exit, label %12

12:                                               ; preds = %9
  invoke void @_ZN2cv5utils5trace7details6Region7destroyEv(ptr noundef nonnull align 8 dereferenceable(12) %6)
          to label %_ZN2cv5utils5trace7details6RegionD2Ev.exit unwind label %13

13:                                               ; preds = %12
  %14 = landingpad { ptr, i32 }
          catch ptr null
  %15 = extractvalue { ptr, i32 } %14, 0
  call void @__clang_call_terminate(ptr %15) #17
  unreachable

_ZN2cv5utils5trace7details6RegionD2Ev.exit:       ; preds = %9, %12
  ret void

16:                                               ; preds = %8, %4
  %17 = landingpad { ptr, i32 }
          cleanup
  call void @_ZN2cv5utils5trace7details6RegionD2Ev(ptr noundef nonnull align 8 dereferenceable(12) %6) #18
  resume { ptr, i32 } %17
}